; Function Attrs: mustprogress uwtable
define hidden void @_ZN4lean15constructor_valC2ERKNS_4nameERKNS_8list_refIS1_EERKNS_4exprES3_jjjb(ptr noundef nonnull writeonly align 8 captures(none) dereferenceable(8) %0, ptr noundef nonnull readonly align 8 captures(none) dereferenceable(8) %1, ptr noundef nonnull readonly align 8 captures(none) dereferenceable(8) %2, ptr noundef nonnull readonly align 8 captures(none) dereferenceable(8) %3, ptr noundef nonnull readonly align 8 captures(none) dereferenceable(8) %4, i32 noundef %5, i32 noundef %6, i32 noundef %7, i1 noundef zeroext %8) unnamed_addr #0 align 2 personality ptr @__gxx_personality_v0 {
  %10 = alloca %"class.lean::nat", align 8
  %11 = alloca %"class.lean::nat", align 8
  %12 = alloca %"class.lean::nat", align 8
  %13 = zext i1 %8 to i8
  %14 = load ptr, ptr %1, align 8, !tbaa !3
  %15 = ptrtoint ptr %14 to i64
  %16 = and i64 %15, 1
  %.not.i.i = icmp eq i64 %16, 0
  br i1 %.not.i.i, label %17, label %_ZNK4lean10object_ref10to_obj_argEv.exit

17:                                               ; preds = %9
  %.val.i.i.i = load i32, ptr %14, align 4, !tbaa !8
  %18 = icmp sgt i32 %.val.i.i.i, 0
  br i1 %18, label %19, label %21, !prof !11

19:                                               ; preds = %17
  %20 = add nuw nsw i32 %.val.i.i.i, 1
  store i32 %20, ptr %14, align 4, !tbaa !8
  br label %_ZNK4lean10object_ref10to_obj_argEv.exit

21:                                               ; preds = %17
  %.not.i.i.i = icmp eq i32 %.val.i.i.i, 0
  br i1 %.not.i.i.i, label %_ZNK4lean10object_ref10to_obj_argEv.exit, label %22

22:                                               ; preds = %21
  tail call void @lean_inc_ref_cold(ptr noundef nonnull %14)
  %.pre.i = load ptr, ptr %1, align 8, !tbaa !3
  br label %_ZNK4lean10object_ref10to_obj_argEv.exit

_ZNK4lean10object_ref10to_obj_argEv.exit:         ; preds = %9, %19, %21, %22
  %23 = phi ptr [ %14, %9 ], [ %14, %19 ], [ %14, %21 ], [ %.pre.i, %22 ]
  %24 = load ptr, ptr %2, align 8, !tbaa !3
  %25 = ptrtoint ptr %24 to i64
  %26 = and i64 %25, 1
  %.not.i.i18 = icmp eq i64 %26, 0
  br i1 %.not.i.i18, label %27, label %_ZNK4lean10object_ref10to_obj_argEv.exit22

27:                                               ; preds = %_ZNK4lean10object_ref10to_obj_argEv.exit
  %.val.i.i.i19 = load i32, ptr %24, align 4, !tbaa !8
  %28 = icmp sgt i32 %.val.i.i.i19, 0
  br i1 %28, label %29, label %31, !prof !11

29:                                               ; preds = %27
  %30 = add nuw nsw i32 %.val.i.i.i19, 1
  store i32 %30, ptr %24, align 4, !tbaa !8
  br label %_ZNK4lean10object_ref10to_obj_argEv.exit22

31:                                               ; preds = %27
  %.not.i.i.i20 = icmp eq i32 %.val.i.i.i19, 0
  br i1 %.not.i.i.i20, label %_ZNK4lean10object_ref10to_obj_argEv.exit22, label %32

32:                                               ; preds = %31
  tail call void @lean_inc_ref_cold(ptr noundef nonnull %24)
  %.pre.i21 = load ptr, ptr %2, align 8, !tbaa !3
  br label %_ZNK4lean10object_ref10to_obj_argEv.exit22

_ZNK4lean10object_ref10to_obj_argEv.exit22:       ; preds = %_ZNK4lean10object_ref10to_obj_argEv.exit, %29, %31, %32
  %33 = phi ptr [ %24, %_ZNK4lean10object_ref10to_obj_argEv.exit ], [ %24, %29 ], [ %24, %31 ], [ %.pre.i21, %32 ]
  %34 = load ptr, ptr %3, align 8, !tbaa !3
  %35 = ptrtoint ptr %34 to i64
  %36 = and i64 %35, 1
  %.not.i.i23 = icmp eq i64 %36, 0
  br i1 %.not.i.i23, label %37, label %_ZNK4lean10object_ref10to_obj_argEv.exit27

37:                                               ; preds = %_ZNK4lean10object_ref10to_obj_argEv.exit22
  %.val.i.i.i24 = load i32, ptr %34, align 4, !tbaa !8
  %38 = icmp sgt i32 %.val.i.i.i24, 0
  br i1 %38, label %39, label %41, !prof !11

39:                                               ; preds = %37
  %40 = add nuw nsw i32 %.val.i.i.i24, 1
  store i32 %40, ptr %34, align 4, !tbaa !8
  br label %_ZNK4lean10object_ref10to_obj_argEv.exit27

41:                                               ; preds = %37
  %.not.i.i.i25 = icmp eq i32 %.val.i.i.i24, 0
  br i1 %.not.i.i.i25, label %_ZNK4lean10object_ref10to_obj_argEv.exit27, label %42

42:                                               ; preds = %41
  tail call void @lean_inc_ref_cold(ptr noundef nonnull %34)
  %.pre.i26 = load ptr, ptr %3, align 8, !tbaa !3
  br label %_ZNK4lean10object_ref10to_obj_argEv.exit27

_ZNK4lean10object_ref10to_obj_argEv.exit27:       ; preds = %_ZNK4lean10object_ref10to_obj_argEv.exit22, %39, %41, %42
  %43 = phi ptr [ %34, %_ZNK4lean10object_ref10to_obj_argEv.exit22 ], [ %34, %39 ], [ %34, %41 ], [ %.pre.i26, %42 ]
  %44 = load ptr, ptr %4, align 8, !tbaa !3
  %45 = ptrtoint ptr %44 to i64
  %46 = and i64 %45, 1
  %.not.i.i28 = icmp eq i64 %46, 0
  br i1 %.not.i.i28, label %47, label %53

47:                                               ; preds = %_ZNK4lean10object_ref10to_obj_argEv.exit27
  %.val.i.i.i29 = load i32, ptr %44, align 4, !tbaa !8
  %48 = icmp sgt i32 %.val.i.i.i29, 0
  br i1 %48, label %49, label %51, !prof !11

49:                                               ; preds = %47
  %50 = add nuw nsw i32 %.val.i.i.i29, 1
  store i32 %50, ptr %44, align 4, !tbaa !8
  br label %53

51:                                               ; preds = %47
  %.not.i.i.i30 = icmp eq i32 %.val.i.i.i29, 0
  br i1 %.not.i.i.i30, label %53, label %52

52:                                               ; preds = %51
  tail call void @lean_inc_ref_cold(ptr noundef nonnull %44)
  %.pre.i31 = load ptr, ptr %4, align 8, !tbaa !3
  br label %53

53:                                               ; preds = %_ZNK4lean10object_ref10to_obj_argEv.exit27, %49, %51, %52
  %54 = phi ptr [ %44, %_ZNK4lean10object_ref10to_obj_argEv.exit27 ], [ %44, %49 ], [ %44, %51 ], [ %.pre.i31, %52 ]
  call void @llvm.lifetime.start.p0(i64 8, ptr nonnull %10) #16
  %55 = zext i32 %5 to i64
  %56 = shl nuw nsw i64 %55, 1
  %57 = or disjoint i64 %56, 1
  %58 = inttoptr i64 %57 to ptr
  store ptr %58, ptr %10, align 8, !tbaa !3
  call void @llvm.lifetime.start.p0(i64 8, ptr nonnull %11) #16
  %59 = zext i32 %6 to i64
  %60 = shl nuw nsw i64 %59, 1
  %61 = or disjoint i64 %60, 1
  %62 = inttoptr i64 %61 to ptr
  store ptr %62, ptr %11, align 8, !tbaa !3
  call void @llvm.lifetime.start.p0(i64 8, ptr nonnull %12) #16
  %63 = zext i32 %7 to i64
  %64 = shl nuw nsw i64 %63, 1
  %65 = or disjoint i64 %64, 1
  %66 = inttoptr i64 %65 to ptr
  store ptr %66, ptr %12, align 8, !tbaa !3
  %67 = invoke ptr @lean_mk_constructor_val(ptr noundef %23, ptr noundef %33, ptr noundef %43, ptr noundef %54, ptr noundef nonnull %58, ptr noundef nonnull %62, ptr noundef nonnull %66, i8 noundef zeroext %13)
          to label %_ZN4lean10object_refD2Ev.exit57 unwind label %68

_ZN4lean10object_refD2Ev.exit57:                  ; preds = %53
  store ptr %67, ptr %0, align 8, !tbaa !3
  call void @llvm.lifetime.end.p0(i64 8, ptr nonnull %12) #16
  call void @llvm.lifetime.end.p0(i64 8, ptr nonnull %11) #16
  call void @llvm.lifetime.end.p0(i64 8, ptr nonnull %10) #16
  ret void

68:                                               ; preds = %53
  %69 = landingpad { ptr, i32 }
          cleanup
  call void @_ZN4lean10object_refD2Ev(ptr noundef nonnull align 8 dereferenceable(8) %12) #16
  call void @llvm.lifetime.end.p0(i64 8, ptr nonnull %12) #16
  call void @_ZN4lean10object_refD2Ev(ptr noundef nonnull align 8 dereferenceable(8) %11) #16
  call void @llvm.lifetime.end.p0(i64 8, ptr nonnull %11) #16
  call void @_ZN4lean10object_refD2Ev(ptr noundef nonnull align 8 dereferenceable(8) %10) #16
  call void @llvm.lifetime.end.p0(i64 8, ptr nonnull %10) #16
  resume { ptr, i32 } %69
}